; Function Attrs: mustprogress nounwind uwtable
define hidden noundef zeroext i1 @_ZNK8TypeVect5emptyEv(ptr nocapture noundef nonnull readonly align 8 dereferenceable(36) %0) unnamed_addr #0 align 2 {
  %2 = getelementptr inbounds i8, ptr %0, i64 24
  %3 = load ptr, ptr %2, align 8
  %4 = load ptr, ptr %3, align 8
  %5 = getelementptr inbounds i8, ptr %4, i64 72
  %6 = load ptr, ptr %5, align 8
  %7 = tail call noundef zeroext i1 %6(ptr noundef nonnull align 8 dereferenceable(20) %3) #17
  ret i1 %7
}